target datalayout = "e-m:e-p270:32:32-p271:32:32-p272:64:64-i64:64-i128:128-f80:128-n8:16:32:64-S128"
target triple = "x86_64-pc-linux-gnu"

%struct.t_psdata = type { ptr, %"class.std::vector", float, i32 }
%"class.std::vector" = type { %"struct.std::_Vector_base" }
%"struct.std::_Vector_base" = type { %"struct.std::_Vector_base<t_rgb, std::allocator<t_rgb>>::_Vector_impl" }
%"struct.std::_Vector_base<t_rgb, std::allocator<t_rgb>>::_Vector_impl" = type { %"struct.std::_Vector_base<t_rgb, std::allocator<t_rgb>>::_Vector_impl_data" }
%"struct.std::_Vector_base<t_rgb, std::allocator<t_rgb>>::_Vector_impl_data" = type { ptr, ptr, ptr }

@.str.36 = private unnamed_addr constant [9 x i8] c"%g %g r\0A\00", align 1
@.str.37 = private unnamed_addr constant [9 x i8] c"%g %g m\0A\00", align 1
@.str.39 = private unnamed_addr constant [3 x i8] c"s\0A\00", align 1

; Function Attrs: mustprogress nounwind uwtable
define void @_Z10ps_linerelP8t_psdataff(ptr noundef %0, float noundef %1, float noundef %2) #3 {
  %4 = alloca ptr, align 8
  %5 = alloca float, align 4
  %6 = alloca float, align 4
  store ptr %0, ptr %4, align 8, !tbaa !26
  store float %1, ptr %5, align 4, !tbaa !15
  store float %2, ptr %6, align 4, !tbaa !15
  %7 = load ptr, ptr %4, align 8, !tbaa !26
  %8 = getelementptr inbounds nuw %struct.t_psdata, ptr %7, i32 0, i32 0
  %9 = load ptr, ptr %8, align 8, !tbaa !17
  %10 = load float, ptr %5, align 4, !tbaa !15
  %11 = fpext float %10 to double
  %12 = load float, ptr %6, align 4, !tbaa !15
  %13 = fpext float %12 to double
  %14 = call i32 (ptr, ptr, ...) @fprintf(ptr noundef %9, ptr noundef @.str.36, double noundef %11, double noundef %13) #14
  ret void
}

; Function Attrs: mustprogress nounwind uwtable
define void @_Z9ps_movetoP8t_psdataff(ptr noundef %0, float noundef %1, float noundef %2) #3 {
  %4 = alloca ptr, align 8
  %5 = alloca float, align 4
  %6 = alloca float, align 4
  store ptr %0, ptr %4, align 8, !tbaa !26
  store float %1, ptr %5, align 4, !tbaa !15
  store float %2, ptr %6, align 4, !tbaa !15
  %7 = load ptr, ptr %4, align 8, !tbaa !26
  %8 = getelementptr inbounds nuw %struct.t_psdata, ptr %7, i32 0, i32 0
  %9 = load ptr, ptr %8, align 8, !tbaa !17
  %10 = load float, ptr %5, align 4, !tbaa !15
  %11 = fpext float %10 to double
  %12 = load float, ptr %6, align 4, !tbaa !15
  %13 = fpext float %12 to double
  %14 = call i32 (ptr, ptr, ...) @fprintf(ptr noundef %9, ptr noundef @.str.37, double noundef %11, double noundef %13) #14
  ret void
}

; Function Attrs: mustprogress nounwind uwtable
define internal void @_ZL6do_boxP8t_psdataffff(ptr noundef %0, float noundef %1, float noundef %2, float noundef %3, float noundef %4) #3 {
  %6 = alloca ptr, align 8
  %7 = alloca float, align 4
  %8 = alloca float, align 4
  %9 = alloca float, align 4
  %10 = alloca float, align 4
  store ptr %0, ptr %6, align 8, !tbaa !26
  store float %1, ptr %7, align 4, !tbaa !15
  store float %2, ptr %8, align 4, !tbaa !15
  store float %3, ptr %9, align 4, !tbaa !15
  store float %4, ptr %10, align 4, !tbaa !15
  %11 = load ptr, ptr %6, align 8, !tbaa !26
  %12 = load float, ptr %7, align 4, !tbaa !15
  %13 = load float, ptr %8, align 4, !tbaa !15
  call void @_Z9ps_movetoP8t_psdataff(ptr noundef %11, float noundef %12, float noundef %13)
  %14 = load ptr, ptr %6, align 8, !tbaa !26
  %15 = load float, ptr %10, align 4, !tbaa !15
  %16 = load float, ptr %8, align 4, !tbaa !15
  %17 = fsub float %15, %16
  call void @_Z10ps_linerelP8t_psdataff(ptr noundef %14, float noundef 0.000000e+00, float noundef %17)
  %18 = load ptr, ptr %6, align 8, !tbaa !26
  %19 = load float, ptr %9, align 4, !tbaa !15
  %20 = load float, ptr %7, align 4, !tbaa !15
  %21 = fsub float %19, %20
  call void @_Z10ps_linerelP8t_psdataff(ptr noundef %18, float noundef %21, float noundef 0.000000e+00)
  %22 = load ptr, ptr %6, align 8, !tbaa !26
  %23 = load float, ptr %8, align 4, !tbaa !15
  %24 = load float, ptr %10, align 4, !tbaa !15
  %25 = fsub float %23, %24
  call void @_Z10ps_linerelP8t_psdataff(ptr noundef %22, float noundef 0.000000e+00, float noundef %25)
  %26 = load ptr, ptr %6, align 8, !tbaa !26
  %27 = load float, ptr %7, align 4, !tbaa !15
  %28 = load float, ptr %9, align 4, !tbaa !15
  %29 = fsub float %27, %28
  call void @_Z10ps_linerelP8t_psdataff(ptr noundef %26, float noundef %29, float noundef 0.000000e+00)
  ret void
}

; Function Attrs: mustprogress uwtable
define void @_Z6ps_boxP8t_psdataffff(ptr noundef %0, float noundef %1, float noundef %2, float noundef %3, float noundef %4) #0 {
  %6 = alloca ptr, align 8
  %7 = alloca float, align 4
  %8 = alloca float, align 4
  %9 = alloca float, align 4
  %10 = alloca float, align 4
  store ptr %0, ptr %6, align 8, !tbaa !26
  store float %1, ptr %7, align 4, !tbaa !15
  store float %2, ptr %8, align 4, !tbaa !15
  store float %3, ptr %9, align 4, !tbaa !15
  store float %4, ptr %10, align 4, !tbaa !15
  %11 = load ptr, ptr %6, align 8, !tbaa !26
  %12 = load float, ptr %7, align 4, !tbaa !15
  %13 = load float, ptr %8, align 4, !tbaa !15
  %14 = load float, ptr %9, align 4, !tbaa !15
  %15 = load float, ptr %10, align 4, !tbaa !15
  call void @_ZL6do_boxP8t_psdataffff(ptr noundef %11, float noundef %12, float noundef %13, float noundef %14, float noundef %15)
  %16 = load ptr, ptr %6, align 8, !tbaa !26
  %17 = getelementptr inbounds nuw %struct.t_psdata, ptr %16, i32 0, i32 0
  %18 = load ptr, ptr %17, align 8, !tbaa !17
  %19 = call i32 (ptr, ptr, ...) @fprintf(ptr noundef %18, ptr noundef @.str.39) #14
  ret void
}